target datalayout = "e-m:e-p270:32:32-p271:32:32-p272:64:64-i64:64-i128:128-f80:128-n8:16:32:64-S128"
target triple = "x86_64-pc-linux-gnu"

%struct.expert_field = type { i32, i32 }

@ei_gsm_a_dtap_extraneous_data = internal global %struct.expert_field zeroinitializer, align 4
@hf_gsm_a_dtap_lsa_id = internal global i32 0, align 4
@.str.821 = private unnamed_addr constant [13 x i8] c"not included\00", align 1

; Function Attrs: null_pointer_is_valid sspstrong uwtable
define internal zeroext i16 @de_lsa_id(ptr noundef %0, ptr noundef %1, ptr noundef %2, i32 noundef %3, i32 noundef %4, ptr noundef %5, i32 noundef %6) #1 {
  %8 = alloca ptr, align 8
  %9 = alloca ptr, align 8
  %10 = alloca ptr, align 8
  %11 = alloca i32, align 4
  %12 = alloca i32, align 4
  %13 = alloca ptr, align 8
  %14 = alloca i32, align 4
  %15 = alloca i32, align 4
  store ptr %0, ptr %8, align 8
  store ptr %1, ptr %9, align 8
  store ptr %2, ptr %10, align 8
  store i32 %3, ptr %11, align 4
  store i32 %4, ptr %12, align 4
  store ptr %5, ptr %13, align 8
  store i32 %6, ptr %14, align 4
  call void @llvm.lifetime.start.p0(i64 4, ptr %15) #7
  %16 = load i32, ptr %11, align 4
  store i32 %16, ptr %15, align 4
  %17 = load i32, ptr %12, align 4
  %18 = icmp eq i32 %17, 0
  br i1 %18, label %19, label %26

19:                                               ; preds = %7
  %20 = load ptr, ptr %9, align 8
  %21 = load i32, ptr @hf_gsm_a_dtap_lsa_id, align 4
  %22 = load ptr, ptr %8, align 8
  %23 = load i32, ptr %15, align 4
  %24 = load i32, ptr %12, align 4
  %25 = call ptr (ptr, i32, ptr, i32, i32, i32, ptr, ...) @proto_tree_add_uint_format_value(ptr noundef %20, i32 noundef %21, ptr noundef %22, i32 noundef %23, i32 noundef %24, i32 noundef 0, ptr noundef @.str.821)
  br label %32

26:                                               ; preds = %7
  %27 = load ptr, ptr %9, align 8
  %28 = load i32, ptr @hf_gsm_a_dtap_lsa_id, align 4
  %29 = load ptr, ptr %8, align 8
  %30 = load i32, ptr %15, align 4
  %31 = call ptr @proto_tree_add_item(ptr noundef %27, i32 noundef %28, ptr noundef %29, i32 noundef %30, i32 noundef 3, i32 noundef 0)
  br label %32

32:                                               ; preds = %26, %19
  %33 = load i32, ptr %12, align 4
  %34 = load i32, ptr %15, align 4
  %35 = add i32 %34, %33
  store i32 %35, ptr %15, align 4
  %36 = load i32, ptr %12, align 4
  %37 = load i32, ptr %15, align 4
  %38 = load i32, ptr %11, align 4
  %39 = sub i32 %37, %38
  %40 = icmp ugt i32 %36, %39
  br i1 %40, label %41, label %59

41:                                               ; preds = %32
  %42 = load ptr, ptr %9, align 8
  %43 = load ptr, ptr %10, align 8
  %44 = load ptr, ptr %8, align 8
  %45 = load i32, ptr %15, align 4
  %46 = load i32, ptr %12, align 4
  %47 = load i32, ptr %15, align 4
  %48 = load i32, ptr %11, align 4
  %49 = sub i32 %47, %48
  %50 = sub i32 %46, %49
  %51 = call ptr @proto_tree_add_expert(ptr noundef %42, ptr noundef %43, ptr noundef @ei_gsm_a_dtap_extraneous_data, ptr noundef %44, i32 noundef %45, i32 noundef %50)
  %52 = load i32, ptr %12, align 4
  %53 = load i32, ptr %15, align 4
  %54 = load i32, ptr %11, align 4
  %55 = sub i32 %53, %54
  %56 = sub i32 %52, %55
  %57 = load i32, ptr %15, align 4
  %58 = add i32 %57, %56
  store i32 %58, ptr %15, align 4
  br label %59

59:                                               ; preds = %41, %32
  %60 = load i32, ptr %15, align 4
  %61 = load i32, ptr %11, align 4
  %62 = sub i32 %60, %61
  %63 = trunc i32 %62 to i16
  call void @llvm.lifetime.end.p0(i64 4, ptr %15) #7
  ret i16 %63
}