; Function Attrs: null_pointer_is_valid sspstrong uwtable
define internal noundef zeroext i16 @de_lsa_id(ptr noundef %0, ptr noundef %1, ptr readnone captures(none) %2, i32 noundef %3, i32 noundef %4, ptr readnone captures(none) %5, i32 %6) #1 {
  %8 = icmp eq i32 %4, 0
  %9 = load i32, ptr @hf_gsm_a_dtap_lsa_id, align 4
  br i1 %8, label %10, label %12

10:                                               ; preds = %7
  %11 = tail call ptr (ptr, i32, ptr, i32, i32, i32, ptr, ...) @proto_tree_add_uint_format_value(ptr noundef %1, i32 noundef %9, ptr noundef %0, i32 noundef %3, i32 noundef 0, i32 noundef 0, ptr noundef nonnull @.str.821)
  br label %14

12:                                               ; preds = %7
  %13 = tail call ptr @proto_tree_add_item(ptr noundef %1, i32 noundef %9, ptr noundef %0, i32 noundef %3, i32 noundef 3, i32 noundef 0)
  br label %14

14:                                               ; preds = %10, %12
  %15 = trunc i32 %4 to i16
  ret i16 %15
}